
solver:     file format elf64-x86-64


Disassembly of section .init:

0000000000001000 <_init>:
    1000:	f3 0f 1e fa          	endbr64
    1004:	48 83 ec 08          	sub    rsp,0x8
    1008:	48 8b 05 c1 2f 00 00 	mov    rax,QWORD PTR [rip+0x2fc1]        # 3fd0 <__gmon_start__@Base>
    100f:	48 85 c0             	test   rax,rax
    1012:	74 02                	je     1016 <_init+0x16>
    1014:	ff d0                	call   rax
    1016:	48 83 c4 08          	add    rsp,0x8
    101a:	c3                   	ret

Disassembly of section .plt:

0000000000001020 <__stack_chk_fail@plt-0x10>:
    1020:	ff 35 ca 2f 00 00    	push   QWORD PTR [rip+0x2fca]        # 3ff0 <_GLOBAL_OFFSET_TABLE_+0x8>
    1026:	ff 25 cc 2f 00 00    	jmp    QWORD PTR [rip+0x2fcc]        # 3ff8 <_GLOBAL_OFFSET_TABLE_+0x10>
    102c:	0f 1f 40 00          	nop    DWORD PTR [rax+0x0]

0000000000001030 <__stack_chk_fail@plt>:
    1030:	ff 25 ca 2f 00 00    	jmp    QWORD PTR [rip+0x2fca]        # 4000 <__stack_chk_fail@GLIBC_2.4>
    1036:	68 00 00 00 00       	push   0x0
    103b:	e9 e0 ff ff ff       	jmp    1020 <_init+0x20>

Disassembly of section .plt.got:

0000000000001040 <printf@plt>:
    1040:	ff 25 82 2f 00 00    	jmp    QWORD PTR [rip+0x2f82]        # 3fc8 <printf@GLIBC_2.2.5>
    1046:	66 90                	xchg   ax,ax

Disassembly of section .text:

0000000000001050 <_start>:
    1050:	f3 0f 1e fa          	endbr64
    1054:	31 ed                	xor    ebp,ebp
    1056:	49 89 d1             	mov    r9,rdx
    1059:	5e                   	pop    rsi
    105a:	48 89 e2             	mov    rdx,rsp
    105d:	48 83 e4 f0          	and    rsp,0xfffffffffffffff0
    1061:	50                   	push   rax
    1062:	54                   	push   rsp
    1063:	45 31 c0             	xor    r8d,r8d
    1066:	31 c9                	xor    ecx,ecx
    1068:	48 8d 3d 7b 01 00 00 	lea    rdi,[rip+0x17b]        # 11ea <main>
    106f:	ff 15 43 2f 00 00    	call   QWORD PTR [rip+0x2f43]        # 3fb8 <__libc_start_main@GLIBC_2.34>
    1075:	f4                   	hlt
    1076:	66 2e 0f 1f 84 00 00 	cs nop WORD PTR [rax+rax*1+0x0]
    107d:	00 00 00 
    1080:	48 8d 3d 91 2f 00 00 	lea    rdi,[rip+0x2f91]        # 4018 <__TMC_END__>
    1087:	48 8d 05 8a 2f 00 00 	lea    rax,[rip+0x2f8a]        # 4018 <__TMC_END__>
    108e:	48 39 f8             	cmp    rax,rdi
    1091:	74 15                	je     10a8 <_start+0x58>
    1093:	48 8b 05 26 2f 00 00 	mov    rax,QWORD PTR [rip+0x2f26]        # 3fc0 <_ITM_deregisterTMCloneTable@Base>
    109a:	48 85 c0             	test   rax,rax
    109d:	74 09                	je     10a8 <_start+0x58>
    109f:	ff e0                	jmp    rax
    10a1:	0f 1f 80 00 00 00 00 	nop    DWORD PTR [rax+0x0]
    10a8:	c3                   	ret
    10a9:	0f 1f 80 00 00 00 00 	nop    DWORD PTR [rax+0x0]
    10b0:	48 8d 3d 61 2f 00 00 	lea    rdi,[rip+0x2f61]        # 4018 <__TMC_END__>
    10b7:	48 8d 35 5a 2f 00 00 	lea    rsi,[rip+0x2f5a]        # 4018 <__TMC_END__>
    10be:	48 29 fe             	sub    rsi,rdi
    10c1:	48 89 f0             	mov    rax,rsi
    10c4:	48 c1 ee 3f          	shr    rsi,0x3f
    10c8:	48 c1 f8 03          	sar    rax,0x3
    10cc:	48 01 c6             	add    rsi,rax
    10cf:	48 d1 fe             	sar    rsi,1
    10d2:	74 14                	je     10e8 <_start+0x98>
    10d4:	48 8b 05 fd 2e 00 00 	mov    rax,QWORD PTR [rip+0x2efd]        # 3fd8 <_ITM_registerTMCloneTable@Base>
    10db:	48 85 c0             	test   rax,rax
    10de:	74 08                	je     10e8 <_start+0x98>
    10e0:	ff e0                	jmp    rax
    10e2:	66 0f 1f 44 00 00    	nop    WORD PTR [rax+rax*1+0x0]
    10e8:	c3                   	ret
    10e9:	0f 1f 80 00 00 00 00 	nop    DWORD PTR [rax+0x0]
    10f0:	f3 0f 1e fa          	endbr64
    10f4:	80 3d 1d 2f 00 00 00 	cmp    BYTE PTR [rip+0x2f1d],0x0        # 4018 <__TMC_END__>
    10fb:	75 33                	jne    1130 <_start+0xe0>
    10fd:	55                   	push   rbp
    10fe:	48 83 3d da 2e 00 00 	cmp    QWORD PTR [rip+0x2eda],0x0        # 3fe0 <__cxa_finalize@GLIBC_2.2.5>
    1105:	00 
    1106:	48 89 e5             	mov    rbp,rsp
    1109:	74 0d                	je     1118 <_start+0xc8>
    110b:	48 8b 3d fe 2e 00 00 	mov    rdi,QWORD PTR [rip+0x2efe]        # 4010 <__dso_handle>
    1112:	ff 15 c8 2e 00 00    	call   QWORD PTR [rip+0x2ec8]        # 3fe0 <__cxa_finalize@GLIBC_2.2.5>
    1118:	e8 63 ff ff ff       	call   1080 <_start+0x30>
    111d:	c6 05 f4 2e 00 00 01 	mov    BYTE PTR [rip+0x2ef4],0x1        # 4018 <__TMC_END__>
    1124:	5d                   	pop    rbp
    1125:	c3                   	ret
    1126:	66 2e 0f 1f 84 00 00 	cs nop WORD PTR [rax+rax*1+0x0]
    112d:	00 00 00 
    1130:	c3                   	ret
    1131:	66 66 2e 0f 1f 84 00 	data16 cs nop WORD PTR [rax+rax*1+0x0]
    1138:	00 00 00 00 
    113c:	0f 1f 40 00          	nop    DWORD PTR [rax+0x0]
    1140:	f3 0f 1e fa          	endbr64
    1144:	e9 67 ff ff ff       	jmp    10b0 <_start+0x60>

0000000000001149 <solver>:
    1149:	55                   	push   rbp
    114a:	48 89 e5             	mov    rbp,rsp
    114d:	48 83 ec 30          	sub    rsp,0x30
    1151:	48 89 7d d8          	mov    QWORD PTR [rbp-0x28],rdi
    1155:	64 48 8b 04 25 28 00 	mov    rax,QWORD PTR fs:0x28
    115c:	00 00 
    115e:	48 89 45 f8          	mov    QWORD PTR [rbp-0x8],rax
    1162:	31 c0                	xor    eax,eax
    1164:	48 8d 45 e0          	lea    rax,[rbp-0x20]
    1168:	48 83 c0 18          	add    rax,0x18
    116c:	48 8b 00             	mov    rax,QWORD PTR [rax]
    116f:	48 8b 55 d8          	mov    rdx,QWORD PTR [rbp-0x28]
    1173:	48 89 c6             	mov    rsi,rax
    1176:	48 8d 05 87 0e 00 00 	lea    rax,[rip+0xe87]        # 2004 <_IO_stdin_used+0x4>
    117d:	48 89 c7             	mov    rdi,rax
    1180:	b8 00 00 00 00       	mov    eax,0x0
    1185:	ff d2                	call   rdx
    1187:	48 8d 45 e0          	lea    rax,[rbp-0x20]
    118b:	48 83 c0 20          	add    rax,0x20
    118f:	48 8b 00             	mov    rax,QWORD PTR [rax]
    1192:	48 8b 55 d8          	mov    rdx,QWORD PTR [rbp-0x28]
    1196:	48 89 c6             	mov    rsi,rax
    1199:	48 8d 05 64 0e 00 00 	lea    rax,[rip+0xe64]        # 2004 <_IO_stdin_used+0x4>
    11a0:	48 89 c7             	mov    rdi,rax
    11a3:	b8 00 00 00 00       	mov    eax,0x0
    11a8:	ff d2                	call   rdx
    11aa:	48 8d 45 e0          	lea    rax,[rbp-0x20]
    11ae:	48 83 c0 28          	add    rax,0x28
    11b2:	48 8b 00             	mov    rax,QWORD PTR [rax]
    11b5:	48 05 ab 00 00 00    	add    rax,0xab
    11bb:	48 8b 55 d8          	mov    rdx,QWORD PTR [rbp-0x28]
    11bf:	48 89 c6             	mov    rsi,rax
    11c2:	48 8d 05 3b 0e 00 00 	lea    rax,[rip+0xe3b]        # 2004 <_IO_stdin_used+0x4>
    11c9:	48 89 c7             	mov    rdi,rax
    11cc:	b8 00 00 00 00       	mov    eax,0x0
    11d1:	ff d2                	call   rdx
    11d3:	90                   	nop
    11d4:	48 8b 45 f8          	mov    rax,QWORD PTR [rbp-0x8]
    11d8:	64 48 2b 04 25 28 00 	sub    rax,QWORD PTR fs:0x28
    11df:	00 00 
    11e1:	74 05                	je     11e8 <solver+0x9f>
    11e3:	e8 48 fe ff ff       	call   1030 <__stack_chk_fail@plt>
    11e8:	c9                   	leave
    11e9:	c3                   	ret

00000000000011ea <main>:
    11ea:	55                   	push   rbp
    11eb:	48 89 e5             	mov    rbp,rsp
    11ee:	48 83 ec 20          	sub    rsp,0x20
    11f2:	64 48 8b 04 25 28 00 	mov    rax,QWORD PTR fs:0x28
    11f9:	00 00 
    11fb:	48 89 45 f8          	mov    QWORD PTR [rbp-0x8],rax
    11ff:	31 c0                	xor    eax,eax
    1201:	48 b8 2a 2a 20 6d 61 	movabs rax,0x206e69616d202a2a
    1208:	69 6e 20 
    120b:	48 ba 3d 20 25 70 0a 	movabs rdx,0xa7025203d
    1212:	00 00 00 
    1215:	48 89 45 e0          	mov    QWORD PTR [rbp-0x20],rax
    1219:	48 89 55 e8          	mov    QWORD PTR [rbp-0x18],rdx
    121d:	48 8d 45 e0          	lea    rax,[rbp-0x20]
    1221:	48 8d 15 c2 ff ff ff 	lea    rdx,[rip+0xffffffffffffffc2]        # 11ea <main>
    1228:	48 89 d6             	mov    rsi,rdx
    122b:	48 89 c7             	mov    rdi,rax
    122e:	b8 00 00 00 00       	mov    eax,0x0
    1233:	e8 08 fe ff ff       	call   1040 <printf@plt>
    1238:	48 8b 05 89 2d 00 00 	mov    rax,QWORD PTR [rip+0x2d89]        # 3fc8 <printf@GLIBC_2.2.5>
    123f:	48 89 c7             	mov    rdi,rax
    1242:	e8 02 ff ff ff       	call   1149 <solver>
    1247:	b8 00 00 00 00       	mov    eax,0x0
    124c:	48 8b 55 f8          	mov    rdx,QWORD PTR [rbp-0x8]
    1250:	64 48 2b 14 25 28 00 	sub    rdx,QWORD PTR fs:0x28
    1257:	00 00 
    1259:	74 05                	je     1260 <main+0x76>
    125b:	e8 d0 fd ff ff       	call   1030 <__stack_chk_fail@plt>
    1260:	c9                   	leave
    1261:	c3                   	ret

Disassembly of section .fini:

0000000000001264 <_fini>:
    1264:	f3 0f 1e fa          	endbr64
    1268:	48 83 ec 08          	sub    rsp,0x8
    126c:	48 83 c4 08          	add    rsp,0x8
    1270:	c3                   	ret
